; Function Attrs: mustprogress uwtable
define hidden void @_ZNK19OpenColorIO_v2_4dev9LogOpData13getBaseStringB5cxx11El(ptr noalias sret(%"class.std::__cxx11::basic_string") align 8 %agg.result, ptr nocapture noundef nonnull readonly align 8 dereferenceable(252) %this, i64 noundef %precision) local_unnamed_addr #3 align 2 personality ptr @__gxx_personality_v0 {
entry:
  %o = alloca %"class.std::__cxx11::basic_ostringstream", align 8
  call void @_ZNSt7__cxx1119basic_ostringstreamIcSt11char_traitsIcESaIcEEC1Ev(ptr noundef nonnull align 8 dereferenceable(112) %o)
  %vtable = load ptr, ptr %o, align 8
  %vbase.offset.ptr = getelementptr i8, ptr %vtable, i64 -24
  %vbase.offset = load i64, ptr %vbase.offset.ptr, align 8
  %add.ptr = getelementptr inbounds i8, ptr %o, i64 %vbase.offset
  %_M_precision.i = getelementptr inbounds i8, ptr %add.ptr, i64 8
  store i64 %precision, ptr %_M_precision.i, align 8
  %m_base.i = getelementptr inbounds i8, ptr %this, i64 240
  %0 = load double, ptr %m_base.i, align 8
  %call4 = invoke noundef nonnull align 8 dereferenceable(8) ptr @_ZNSolsEd(ptr noundef nonnull align 8 dereferenceable(8) %o, double noundef %0)
          to label %invoke.cont3 unwind label %lpad

invoke.cont3:                                     ; preds = %entry
  invoke void @_ZNKSt7__cxx1119basic_ostringstreamIcSt11char_traitsIcESaIcEE3strEv(ptr sret(%"class.std::__cxx11::basic_string") align 8 %agg.result, ptr noundef nonnull align 8 dereferenceable(112) %o)
          to label %invoke.cont5 unwind label %lpad

invoke.cont5:                                     ; preds = %invoke.cont3
  call void @_ZNSt7__cxx1119basic_ostringstreamIcSt11char_traitsIcESaIcEED1Ev(ptr noundef nonnull align 8 dereferenceable(112) %o) #22
  ret void

lpad:                                             ; preds = %invoke.cont3, %entry
  %1 = landingpad { ptr, i32 }
          cleanup
  call void @_ZNSt7__cxx1119basic_ostringstreamIcSt11char_traitsIcESaIcEED1Ev(ptr noundef nonnull align 8 dereferenceable(112) %o) #22
  resume { ptr, i32 } %1
}